target datalayout = "e-m:e-p270:32:32-p271:32:32-p272:64:64-i64:64-i128:128-f80:128-n8:16:32:64-S128"
target triple = "x86_64-pc-linux-gnu"

%struct._asn1_ctx_t = type { i32, i32, i8, ptr, ptr, ptr, ptr, ptr, %struct.anon, %struct.anon.2, %struct.anon.3, ptr }
%struct.anon = type { i32, i8, i8, i8, ptr, ptr, i32, i32, ptr, ptr, ptr, %union.anon }
%union.anon = type { %struct.anon.0 }
%struct.anon.0 = type { ptr }
%struct.anon.2 = type { ptr, ptr, ptr }
%struct.anon.3 = type { i32, i8, ptr, i32, i32, ptr, ptr, ptr, %union.anon.4 }
%union.anon.4 = type { %struct.anon.5 }
%struct.anon.5 = type { ptr }
%struct._packet_info = type { ptr, ptr, i32, i32, %struct.nstime_t, %struct.nstime_t, %struct.nstime_t, i8, ptr, ptr, ptr, ptr, %struct._address, %struct._address, %struct._address, %struct._address, %struct._address, %struct._address, i32, ptr, i8, [3 x i8], %struct.anon.7, i32, i32, i32, i32, ptr, i8, ptr, ptr, i16, i16, i32, i32, i16, i32, i32, ptr, ptr, ptr, i8, i8, i16, i16, i16, i32, i16, i16, ptr, ptr, ptr, ptr, ptr, i32, i32 }
%struct.nstime_t = type { i64, i32 }
%struct._address = type { i32, i32, ptr, ptr }
%struct.anon.7 = type { i8, [3 x i8] }
%struct.p1_address_ctx = type { i8, ptr, i8, ptr }

@.str.3 = private unnamed_addr constant [4 x i8] c" %s\00", align 1
@hf_p1_MessageSubmissionTime_PDU = internal global i32 0, align 4

; Function Attrs: null_pointer_is_valid sspstrong uwtable
define internal i32 @dissect_p1_Time(i1 noundef zeroext %0, ptr noundef %1, i32 noundef %2, ptr noundef %3, ptr noundef %4, i32 noundef %5) #0 {
  %7 = alloca i8, align 1
  %8 = alloca ptr, align 8
  %9 = alloca i32, align 4
  %10 = alloca ptr, align 8
  %11 = alloca ptr, align 8
  %12 = alloca i32, align 4
  %13 = alloca ptr, align 8
  %14 = alloca ptr, align 8
  %15 = zext i1 %0 to i8
  store i8 %15, ptr %7, align 1
  store ptr %1, ptr %8, align 8
  store i32 %2, ptr %9, align 4
  store ptr %3, ptr %10, align 8
  store ptr %4, ptr %11, align 8
  store i32 %5, ptr %12, align 4
  call void @llvm.lifetime.start.p0(i64 8, ptr %13) #5
  store ptr null, ptr %13, align 8
  call void @llvm.lifetime.start.p0(i64 8, ptr %14) #5
  %16 = load ptr, ptr %10, align 8
  %17 = getelementptr inbounds nuw %struct._asn1_ctx_t, ptr %16, i32 0, i32 9
  %18 = getelementptr inbounds nuw %struct.anon.2, ptr %17, i32 0, i32 2
  %19 = load ptr, ptr %18, align 8
  store ptr %19, ptr %14, align 8
  %20 = load i8, ptr %7, align 1, !range !6, !noundef !7
  %21 = trunc i8 %20 to i1
  %22 = load ptr, ptr %10, align 8
  %23 = load ptr, ptr %11, align 8
  %24 = load ptr, ptr %8, align 8
  %25 = load i32, ptr %9, align 4
  %26 = load i32, ptr %12, align 4
  %27 = call i32 @dissect_ber_UTCTime(i1 noundef zeroext %21, ptr noundef %22, ptr noundef %23, ptr noundef %24, i32 noundef %25, i32 noundef %26, ptr noundef null, ptr noundef null)
  store i32 %27, ptr %9, align 4
  %28 = load ptr, ptr %13, align 8
  %29 = icmp ne ptr %28, null
  br i1 %29, label %30, label %52

30:                                               ; preds = %6
  %31 = load ptr, ptr %14, align 8
  %32 = icmp ne ptr %31, null
  br i1 %32, label %33, label %52

33:                                               ; preds = %30
  %34 = load ptr, ptr %14, align 8
  %35 = getelementptr inbounds nuw %struct.p1_address_ctx, ptr %34, i32 0, i32 0
  %36 = load i8, ptr %35, align 8, !range !6, !noundef !7
  %37 = trunc i8 %36 to i1
  br i1 %37, label %38, label %52

38:                                               ; preds = %33
  %39 = load ptr, ptr %10, align 8
  %40 = getelementptr inbounds nuw %struct._asn1_ctx_t, ptr %39, i32 0, i32 9
  %41 = getelementptr inbounds nuw %struct.anon.2, ptr %40, i32 0, i32 0
  %42 = load ptr, ptr %41, align 8
  %43 = load ptr, ptr %10, align 8
  %44 = getelementptr inbounds nuw %struct._asn1_ctx_t, ptr %43, i32 0, i32 3
  %45 = load ptr, ptr %44, align 8
  %46 = getelementptr inbounds nuw %struct._packet_info, ptr %45, i32 0, i32 51
  %47 = load ptr, ptr %46, align 8
  %48 = load ptr, ptr %13, align 8
  %49 = load ptr, ptr %13, align 8
  %50 = call i32 @tvb_reported_length(ptr noundef %49)
  %51 = call ptr @tvb_format_text(ptr noundef %47, ptr noundef %48, i32 noundef 0, i32 noundef %50)
  call void (ptr, ptr, ...) @proto_item_append_text(ptr noundef %42, ptr noundef @.str.3, ptr noundef %51)
  br label %52

52:                                               ; preds = %38, %33, %30, %6
  %53 = load i32, ptr %9, align 4
  call void @llvm.lifetime.end.p0(i64 8, ptr %14) #5
  call void @llvm.lifetime.end.p0(i64 8, ptr %13) #5
  ret i32 %53
}

; Function Attrs: null_pointer_is_valid sspstrong uwtable
define hidden i32 @dissect_p1_MessageSubmissionTime(i1 noundef zeroext %0, ptr noundef %1, i32 noundef %2, ptr noundef %3, ptr noundef %4, i32 noundef %5) #0 {
  %7 = alloca i8, align 1
  %8 = alloca ptr, align 8
  %9 = alloca i32, align 4
  %10 = alloca ptr, align 8
  %11 = alloca ptr, align 8
  %12 = alloca i32, align 4
  %13 = zext i1 %0 to i8
  store i8 %13, ptr %7, align 1
  store ptr %1, ptr %8, align 8
  store i32 %2, ptr %9, align 4
  store ptr %3, ptr %10, align 8
  store ptr %4, ptr %11, align 8
  store i32 %5, ptr %12, align 4
  %14 = load i8, ptr %7, align 1, !range !6, !noundef !7
  %15 = trunc i8 %14 to i1
  %16 = load ptr, ptr %8, align 8
  %17 = load i32, ptr %9, align 4
  %18 = load ptr, ptr %10, align 8
  %19 = load ptr, ptr %11, align 8
  %20 = load i32, ptr %12, align 4
  %21 = call i32 @dissect_p1_Time(i1 noundef zeroext %15, ptr noundef %16, i32 noundef %17, ptr noundef %18, ptr noundef %19, i32 noundef %20)
  store i32 %21, ptr %9, align 4
  %22 = load i32, ptr %9, align 4
  ret i32 %22
}

; Function Attrs: null_pointer_is_valid sspstrong uwtable
define internal i32 @dissect_MessageSubmissionTime_PDU(ptr noundef %0, ptr noundef %1, ptr noundef %2, ptr noundef %3) #0 {
  %5 = alloca ptr, align 8
  %6 = alloca ptr, align 8
  %7 = alloca ptr, align 8
  %8 = alloca ptr, align 8
  %9 = alloca i32, align 4
  %10 = alloca %struct._asn1_ctx_t, align 8
  store ptr %0, ptr %5, align 8
  store ptr %1, ptr %6, align 8
  store ptr %2, ptr %7, align 8
  store ptr %3, ptr %8, align 8
  call void @llvm.lifetime.start.p0(i64 4, ptr %9) #5
  store i32 0, ptr %9, align 4
  call void @llvm.lifetime.start.p0(i64 208, ptr %10) #5
  %11 = load ptr, ptr %6, align 8
  call void @asn1_ctx_init(ptr noundef %10, i32 noundef 0, i1 noundef zeroext true, ptr noundef %11)
  %12 = load ptr, ptr %5, align 8
  %13 = load i32, ptr %9, align 4
  %14 = load ptr, ptr %7, align 8
  %15 = load i32, ptr @hf_p1_MessageSubmissionTime_PDU, align 4
  %16 = call i32 @dissect_p1_MessageSubmissionTime(i1 noundef zeroext false, ptr noundef %12, i32 noundef %13, ptr noundef %10, ptr noundef %14, i32 noundef %15)
  store i32 %16, ptr %9, align 4
  %17 = load i32, ptr %9, align 4
  call void @llvm.lifetime.end.p0(i64 208, ptr %10) #5
  call void @llvm.lifetime.end.p0(i64 4, ptr %9) #5
  ret i32 %17
}